target datalayout = "e-m:e-p270:32:32-p271:32:32-p272:64:64-i64:64-i128:128-f80:128-n8:16:32:64-S128"
target triple = "x86_64-pc-linux-gnu"

; Function Attrs: nounwind uwtable
define internal zeroext i8 @_get_var_parameter(ptr noundef %0, i32 noundef %1) #0 {
  %3 = alloca ptr, align 8
  %4 = alloca i32, align 4
  %5 = alloca i8, align 1
  %6 = alloca ptr, align 8
  %7 = alloca i32, align 4
  store ptr %0, ptr %3, align 8, !tbaa !134
  store i32 %1, ptr %4, align 4, !tbaa !13
  call void @llvm.lifetime.start.p0(i64 1, ptr %5) #11
  %8 = load i32, ptr %4, align 4, !tbaa !13
  %9 = trunc i32 %8 to i8
  store i8 %9, ptr %5, align 1, !tbaa !111
  %10 = load ptr, ptr %3, align 8, !tbaa !134
  %11 = getelementptr inbounds ptr, ptr %10, i64 0
  %12 = load ptr, ptr %11, align 8, !tbaa !11
  %13 = load i8, ptr %12, align 1, !tbaa !111
  %14 = sext i8 %13 to i32
  %15 = icmp eq i32 %14, 91
  br i1 %15, label %16, label %28

16:                                               ; preds = %2
  call void @llvm.lifetime.start.p0(i64 8, ptr %6) #11
  %17 = load ptr, ptr %3, align 8, !tbaa !134
  call void @_get_parameters_n_m(ptr noundef %17, ptr noundef %6, ptr noundef null)
  call void @llvm.lifetime.start.p0(i64 4, ptr %7) #11
  %18 = load ptr, ptr %6, align 8, !tbaa !11
  %19 = call i64 @g_ascii_strtoll(ptr noundef %18, ptr noundef null, i32 noundef 10)
  %20 = trunc i64 %19 to i32
  store i32 %20, ptr %7, align 4, !tbaa !13
  %21 = load i32, ptr %7, align 4, !tbaa !13
  %22 = icmp sgt i32 %21, 0
  br i1 %22, label %23, label %26

23:                                               ; preds = %16
  %24 = load i32, ptr %7, align 4, !tbaa !13
  %25 = trunc i32 %24 to i8
  store i8 %25, ptr %5, align 1, !tbaa !111
  br label %26

26:                                               ; preds = %23, %16
  %27 = load ptr, ptr %6, align 8, !tbaa !11
  call void @g_free(ptr noundef %27)
  call void @llvm.lifetime.end.p0(i64 4, ptr %7) #11
  call void @llvm.lifetime.end.p0(i64 8, ptr %6) #11
  br label %28

28:                                               ; preds = %26, %2
  %29 = load i8, ptr %5, align 1, !tbaa !111
  call void @llvm.lifetime.end.p0(i64 1, ptr %5) #11
  ret i8 %29
}