; Function Attrs: nounwind uwtable
define internal fastcc zeroext i8 @_get_var_parameter(ptr noundef nonnull captures(none) %0) unnamed_addr #0 {
  %2 = alloca ptr, align 8
  %3 = load ptr, ptr %0, align 8, !tbaa !6
  %4 = load i8, ptr %3, align 1, !tbaa !105
  %5 = icmp eq i8 %4, 91
  br i1 %5, label %6, label %13

6:                                                ; preds = %1
  call void @llvm.lifetime.start.p0(i64 8, ptr nonnull %2) #16
  call fastcc void @_get_parameters_n_m(ptr noundef %0, ptr noundef %2, ptr noundef null)
  %7 = load ptr, ptr %2, align 8, !tbaa !6
  %8 = call i64 @g_ascii_strtoll(ptr noundef %7, ptr noundef null, i32 noundef 10) #16
  %9 = trunc i64 %8 to i32
  %10 = icmp sgt i32 %9, 0
  %11 = trunc i64 %8 to i8
  %spec.select = select i1 %10, i8 %11, i8 1
  %12 = load ptr, ptr %2, align 8, !tbaa !6
  call void @g_free(ptr noundef %12) #16
  call void @llvm.lifetime.end.p0(i64 8, ptr nonnull %2) #16
  br label %13

13:                                               ; preds = %6, %1
  %.0 = phi i8 [ %spec.select, %6 ], [ 1, %1 ]
  ret i8 %.0
}